target datalayout = "e-m:e-p270:32:32-p271:32:32-p272:64:64-i64:64-i128:128-f80:128-n8:16:32:64-S128"
target triple = "x86_64-pc-linux-gnu"

@plugin_type = dso_local constant [30 x i8] c"acct_gather_filesystem/lustre\00", align 16
@.str.2 = private unnamed_addr constant [22 x i8] c"%s: %s: lustre: ended\00", align 1
@__func__.fini = private unnamed_addr constant [5 x i8] c"fini\00", align 1

; Function Attrs: nounwind uwtable
define dso_local i32 @fini() #0 {
  %1 = alloca i32, align 4
  %2 = call zeroext i1 @slurm_running_in_slurmstepd()
  br i1 %2, label %4, label %3

3:                                                ; preds = %0
  store i32 0, ptr %1, align 4
  br label %13

4:                                                ; preds = %0
  br label %5

5:                                                ; preds = %4
  br label %6

6:                                                ; preds = %5
  %7 = call i32 @slurm_get_log_level()
  %8 = icmp sge i32 %7, 5
  br i1 %8, label %9, label %10

9:                                                ; preds = %6
  call void (i32, ptr, ...) @slurm_log_var(i32 noundef 5, ptr noundef @.str.2, ptr noundef @plugin_type, ptr noundef @__func__.fini)
  br label %10

10:                                               ; preds = %9, %6
  br label %11

11:                                               ; preds = %10
  br label %12

12:                                               ; preds = %11
  store i32 0, ptr %1, align 4
  br label %13

13:                                               ; preds = %12, %3
  %14 = load i32, ptr %1, align 4
  ret i32 %14
}