; Function Attrs: nounwind uwtable
define dso_local noundef i32 @fini() local_unnamed_addr #0 {
  %1 = tail call zeroext i1 @slurm_running_in_slurmstepd() #11
  br i1 %1, label %2, label %6

2:                                                ; preds = %0
  %3 = tail call i32 @slurm_get_log_level() #11
  %4 = icmp sgt i32 %3, 4
  br i1 %4, label %5, label %6

5:                                                ; preds = %2
  tail call void (i32, ptr, ...) @slurm_log_var(i32 noundef 5, ptr noundef nonnull @.str.2, ptr noundef nonnull @plugin_type, ptr noundef nonnull @__func__.fini) #11
  br label %6

6:                                                ; preds = %2, %5, %0
  ret i32 0
}